; Function Attrs: nounwind uwtable
define internal fastcc range(i32 0, 28) i32 @setup_range(ptr noundef captures(none) initializes((4352, 4360)) %0) unnamed_addr #0 {
  %2 = getelementptr inbounds nuw i8, ptr %0, i64 832
  %3 = load i64, ptr %2, align 8, !tbaa !284
  %4 = getelementptr inbounds nuw i8, ptr %0, i64 4352
  store i64 %3, ptr %4, align 8, !tbaa !285
  %.not = icmp eq i64 %3, 0
  br i1 %.not, label %5, label %8

5:                                                ; preds = %1
  %6 = getelementptr inbounds nuw i8, ptr %0, i64 2136
  %7 = load ptr, ptr %6, align 8, !tbaa !8
  %.not17 = icmp eq ptr %7, null
  br i1 %.not17, label %30, label %8

8:                                                ; preds = %5, %1
  %9 = getelementptr inbounds nuw i8, ptr %0, i64 4876
  %10 = load i32, ptr %9, align 4
  %11 = and i32 %10, 2048
  %.not18 = icmp eq i32 %11, 0
  br i1 %.not18, label %16, label %12

12:                                               ; preds = %8
  %13 = load ptr, ptr @Curl_cfree, align 8, !tbaa !4
  %14 = getelementptr inbounds nuw i8, ptr %0, i64 4344
  %15 = load ptr, ptr %14, align 8, !tbaa !286
  tail call void %13(ptr noundef %15) #12
  %.pre = load i64, ptr %4, align 8, !tbaa !285
  br label %16

16:                                               ; preds = %12, %8
  %17 = phi i64 [ %.pre, %12 ], [ %3, %8 ]
  %.not19 = icmp eq i64 %17, 0
  br i1 %.not19, label %20, label %18

18:                                               ; preds = %16
  %19 = tail call ptr (ptr, ...) @curl_maprintf(ptr noundef nonnull @.str.67, i64 noundef %17) #12
  br label %25

20:                                               ; preds = %16
  %21 = load ptr, ptr @Curl_cstrdup, align 8, !tbaa !4
  %22 = getelementptr inbounds nuw i8, ptr %0, i64 2136
  %23 = load ptr, ptr %22, align 8, !tbaa !8
  %24 = tail call ptr %21(ptr noundef %23) #12
  br label %25

25:                                               ; preds = %20, %18
  %.sink = phi ptr [ %24, %20 ], [ %19, %18 ]
  %26 = getelementptr inbounds nuw i8, ptr %0, i64 4344
  store ptr %.sink, ptr %26, align 8, !tbaa !286
  %.not20 = icmp eq ptr %.sink, null
  br i1 %.not20, label %34, label %27

27:                                               ; preds = %25
  %28 = load i32, ptr %9, align 4
  %29 = or i32 %28, 3072
  store i32 %29, ptr %9, align 4
  br label %34

30:                                               ; preds = %5
  %31 = getelementptr inbounds nuw i8, ptr %0, i64 4876
  %32 = load i32, ptr %31, align 4
  %33 = and i32 %32, -1025
  store i32 %33, ptr %31, align 4
  br label %34

34:                                               ; preds = %27, %30, %25
  %.0 = phi i32 [ 27, %25 ], [ 0, %30 ], [ 0, %27 ]
  ret i32 %.0
}